; Function Attrs: mustprogress uwtable
define dso_local void @_ZN3net14QuicConnection15OnPathDegradingEv(ptr nocapture noundef nonnull readonly align 8 dereferenceable(3372) %this) unnamed_addr #0 align 2 {
entry:
  %visitor_ = getelementptr inbounds i8, ptr %this, i64 2392
  %0 = load ptr, ptr %visitor_, align 8
  %vtable = load ptr, ptr %0, align 8
  %vfn = getelementptr inbounds i8, ptr %vtable, i64 104
  %1 = load ptr, ptr %vfn, align 8
  tail call void %1(ptr noundef nonnull align 8 dereferenceable(8) %0)
  ret void
}